; Function Attrs: mustprogress uwtable
define void @_ZN9pymeshlab17FunctionParameterC2ERKS0_(ptr nocapture noundef nonnull writeonly align 8 dereferenceable(16) %0, ptr nocapture noundef nonnull readonly align 8 dereferenceable(16) %1) unnamed_addr #6 align 2 {
  store ptr getelementptr inbounds ({ [4 x ptr] }, ptr @_ZTVN9pymeshlab17FunctionParameterE, i64 0, i32 0, i64 2), ptr %0, align 8
  %3 = getelementptr inbounds i8, ptr %0, i64 8
  %4 = getelementptr inbounds i8, ptr %1, i64 8
  %5 = load ptr, ptr %4, align 8
  %6 = load ptr, ptr %5, align 8
  %7 = getelementptr inbounds i8, ptr %6, i64 24
  %8 = load ptr, ptr %7, align 8
  %9 = tail call noundef ptr %8(ptr noundef nonnull align 8 dereferenceable(56) %5)
  store ptr %9, ptr %3, align 8
  ret void
}